; Function Attrs: mustprogress uwtable
define void @_ZN7rocksdb18WriteableCacheFile22CloseAndOpenForReadingEv(ptr noundef nonnull align 8 dereferenceable(273) %this) local_unnamed_addr #0 align 2 {
entry:
  tail call void @_ZN7rocksdb18WriteableCacheFile5CloseEv(ptr noundef nonnull align 8 dereferenceable(273) %this)
  %enable_direct_reads_ = getelementptr inbounds i8, ptr %this, i64 272
  %0 = load i8, ptr %enable_direct_reads_, align 8
  %1 = and i8 %0, 1
  %tobool = icmp ne i8 %1, 0
  %call = tail call noundef zeroext i1 @_ZN7rocksdb21RandomAccessCacheFile8OpenImplEb(ptr noundef nonnull align 8 dereferenceable(184) %this, i1 noundef zeroext %tobool)
  ret void
}